Certificate Request:
    Data:
        Version: 0 (0x0)
        Subject: CN=localhost
        Subject Public Key Info:
            Public Key Algorithm: rsaEncryption
                Public-Key: (2048 bit)
                Modulus:
                    00:a7:da:f7:13:7a:dd:cd:76:fa:d1:ba:f5:c8:fc:
                    a0:e6:35:d2:4b:01:d0:80:28:0e:35:21:35:71:94:
                    fc:81:03:24:ab:12:d3:25:47:6a:0f:4e:04:13:b8:
                    2c:5d:26:d5:f8:94:91:db:c8:a6:f7:8b:68:b5:6f:
                    c8:e4:b1:43:d0:b7:69:19:06:cb:3f:18:a1:2c:5e:
                    eb:01:ce:9d:9c:77:6c:1e:b6:0b:f2:6e:cf:e1:51:
                    79:69:e1:d1:05:f4:a2:9e:9f:6c:28:48:3f:df:66:
                    11:8c:8b:ea:f2:23:52:71:f5:74:c1:ec:ad:2d:a7:
                    3a:91:72:21:1c:2d:b8:bc:89:a8:91:8e:6a:ad:9a:
                    36:57:95:b1:2d:2d:74:24:9b:f0:cb:33:6d:9f:80:
                    46:f0:bf:1a:49:44:47:d9:19:75:3b:dd:4d:37:89:
                    a6:bc:e5:d9:47:e4:78:21:60:95:ae:3c:bd:cd:32:
                    8a:e3:39:78:b0:32:fa:1e:8c:3f:c9:94:0b:e5:09:
                    c1:7f:f3:a0:78:43:06:3c:a3:95:43:40:a7:2e:9d:
                    7b:84:1c:1d:66:a9:21:05:45:95:f1:8e:f2:83:96:
                    66:cd:de:fb:79:c6:c0:b2:e9:4f:b6:b5:ee:e9:53:
                    a8:7b:b8:8b:b0:d9:d2:8b:16:81:da:ad:f5:bb:f4:
                    f2:a5
                Exponent: 65537 (0x10001)
        Attributes:
            a0:00
    Signature Algorithm: sha256WithRSAEncryption
         8a:06:3a:7e:8d:73:98:b3:e0:2e:95:51:de:e0:64:70:d7:cf:
         48:5f:94:89:ba:6c:5d:13:f7:4f:e6:11:b3:b1:75:5f:fa:7d:
         cb:0e:e3:21:2c:97:1a:1c:97:5e:8b:df:34:e7:f8:5e:b6:ef:
         1f:17:17:d1:d9:43:1e:76:d7:de:ce:9c:cd:33:91:d5:8a:b9:
         61:43:1d:3a:0a:30:54:f7:be:7f:b7:60:85:7a:c0:ed:19:f5:
         ab:4b:99:40:96:50:82:82:7b:ce:a3:df:71:e8:1a:c2:db:c3:
         e4:12:1f:21:98:fc:c2:b0:61:96:01:82:b3:df:35:d5:e7:72:
         e3:34:0e:57:8c:06:10:e7:3d:d1:09:7d:4f:6f:8f:3b:7c:a4:
         2d:9a:87:ed:04:88:4c:18:ca:4f:05:75:84:43:f4:f1:01:e3:
         7c:78:49:38:9d:05:d9:65:c1:3f:68:cd:45:6f:c3:0b:12:98:
         9b:bf:9e:70:4f:8a:ef:d2:08:3d:fe:85:f7:37:bb:3f:8a:d8:
         e2:87:b1:e2:0c:2c:c1:24:ad:70:90:48:7e:18:8a:79:c6:e2:
         16:e4:05:1c:4d:31:18:a7:f6:a9:e5:28:c3:eb:f0:22:f5:f2:
         62:ec:9f:84:16:ae:a6:aa:97:6b:58:77:a2:77:68:22:b9:a2:
         0a:bb:2a:6c
-----BEGIN CERTIFICATE REQUEST-----
MIICWTCCAUECAQAwFDESMBAGA1UEAwwJbG9jYWxob3N0MIIBIjANBgkqhkiG9w0B
AQEFAAOCAQ8AMIIBCgKCAQEAp9r3E3rdzXb60br1yPyg5jXSSwHQgCgONSE1cZT8
gQMkqxLTJUdqD04EE7gsXSbV+JSR28im94totW/I5LFD0LdpGQbLPxihLF7rAc6d
nHdsHrYL8m7P4VF5aeHRBfSinp9sKEg/32YRjIvq8iNScfV0weytLac6kXIhHC24
vImokY5qrZo2V5WxLS10JJvwyzNtn4BG8L8aSURH2Rl1O91NN4mmvOXZR+R4IWCV
rjy9zTKK4zl4sDL6How/yZQL5QnBf/OgeEMGPKOVQ0CnLp17hBwdZqkhBUWV8Y7y
g5Zmzd77ecbAsulPtrXu6VOoe7iLsNnSixaB2q31u/TypQIDAQABoAAwDQYJKoZI
hvcNAQELBQADggEBAIoGOn6Nc5iz4C6VUd7gZHDXz0hflIm6bF0T90/mEbOxdV/6
fcsO4yEslxocl16L3zTn+F627x8XF9HZQx52197OnM0zkdWKuWFDHToKMFT3vn+3
YIV6wO0Z9atLmUCWUIKCe86j33HoGsLbw+QSHyGY/MKwYZYBgrPfNdXncuM0DleM
BhDnPdEJfU9vjzt8pC2ah+0EiEwYyk8FdYRD9PEB43x4STidBdllwT9ozUVvwwsS
mJu/nnBPiu/SCD3+hfc3uz+K2OKHseIMLMEkrXCQSH4YinnG4hbkBRxNMRin9qnl
KMPr8CL18mLsn4QWrqaql2tYd6J3aCK5ogq7Kmw=
-----END CERTIFICATE REQUEST-----
