Certificate:
    Data:
        Version: 3 (0x2)
        Serial Number:
            b3:b0:c1:45:35:90:72:eb
    Signature Algorithm: sha256WithRSAEncryption
        Issuer: CN=localhost
        Validity
            Not Before: May 21 15:03:47 2019 GMT
            Not After : Jun 20 15:03:47 2019 GMT
        Subject: CN=localhost
        Subject Public Key Info:
            Public Key Algorithm: rsaEncryption
                Public-Key: (2048 bit)
                Modulus:
                    00:a7:da:f7:13:7a:dd:cd:76:fa:d1:ba:f5:c8:fc:
                    a0:e6:35:d2:4b:01:d0:80:28:0e:35:21:35:71:94:
                    fc:81:03:24:ab:12:d3:25:47:6a:0f:4e:04:13:b8:
                    2c:5d:26:d5:f8:94:91:db:c8:a6:f7:8b:68:b5:6f:
                    c8:e4:b1:43:d0:b7:69:19:06:cb:3f:18:a1:2c:5e:
                    eb:01:ce:9d:9c:77:6c:1e:b6:0b:f2:6e:cf:e1:51:
                    79:69:e1:d1:05:f4:a2:9e:9f:6c:28:48:3f:df:66:
                    11:8c:8b:ea:f2:23:52:71:f5:74:c1:ec:ad:2d:a7:
                    3a:91:72:21:1c:2d:b8:bc:89:a8:91:8e:6a:ad:9a:
                    36:57:95:b1:2d:2d:74:24:9b:f0:cb:33:6d:9f:80:
                    46:f0:bf:1a:49:44:47:d9:19:75:3b:dd:4d:37:89:
                    a6:bc:e5:d9:47:e4:78:21:60:95:ae:3c:bd:cd:32:
                    8a:e3:39:78:b0:32:fa:1e:8c:3f:c9:94:0b:e5:09:
                    c1:7f:f3:a0:78:43:06:3c:a3:95:43:40:a7:2e:9d:
                    7b:84:1c:1d:66:a9:21:05:45:95:f1:8e:f2:83:96:
                    66:cd:de:fb:79:c6:c0:b2:e9:4f:b6:b5:ee:e9:53:
                    a8:7b:b8:8b:b0:d9:d2:8b:16:81:da:ad:f5:bb:f4:
                    f2:a5
                Exponent: 65537 (0x10001)
        X509v3 extensions:
            X509v3 Subject Key Identifier: 
                37:5A:7F:0D:0E:56:C8:B9:C5:28:27:B4:3C:08:2D:68:45:BD:C0:01
            X509v3 Authority Key Identifier: 
                keyid:37:5A:7F:0D:0E:56:C8:B9:C5:28:27:B4:3C:08:2D:68:45:BD:C0:01

            X509v3 Basic Constraints: 
                CA:TRUE
    Signature Algorithm: sha256WithRSAEncryption
         04:6e:77:91:6c:12:d7:42:f0:4d:66:0a:98:60:b7:3b:1c:78:
         8b:cd:2c:4c:0d:37:7c:6a:bc:54:25:9b:f2:70:8e:5c:d9:06:
         7a:74:cd:db:0a:84:c8:7b:14:c1:3e:5b:a7:e2:20:4c:63:b1:
         dd:7c:52:4f:0c:4d:bf:17:47:21:10:70:a2:db:73:b5:c5:0f:
         76:03:bb:1d:cd:10:b7:b1:a7:52:d6:30:8a:41:75:65:ce:46:
         2c:b4:2b:ad:b9:63:fa:ac:d4:ad:ba:05:89:98:17:3d:5e:59:
         79:84:8f:8b:d8:16:74:3c:71:44:50:61:e5:4e:4c:cd:a9:14:
         21:bc:1a:30:95:3e:4e:08:74:1f:1a:88:49:44:6c:d8:88:de:
         36:8e:1f:be:fb:56:4e:55:ca:62:f1:8b:db:6a:7c:2b:bf:c4:
         32:66:93:12:1c:0b:70:b7:3c:f2:01:9f:c9:84:3e:9a:a8:cb:
         18:08:f2:05:56:3f:ce:59:77:2c:9b:d1:9a:04:60:55:1c:be:
         fe:50:92:74:75:3a:6f:e3:ba:51:8c:1c:05:bc:f8:2e:fe:4f:
         35:3e:b5:5c:44:53:37:ba:6f:ed:d4:15:58:53:9b:a6:1e:0c:
         c4:7d:21:f6:da:8b:1d:84:ae:e5:73:f7:06:6d:f7:13:8e:5c:
         b7:f7:5b:97
-----BEGIN CERTIFICATE-----
MIIC+zCCAeOgAwIBAgIJALOwwUU1kHLrMA0GCSqGSIb3DQEBCwUAMBQxEjAQBgNV
BAMMCWxvY2FsaG9zdDAeFw0xOTA1MjExNTAzNDdaFw0xOTA2MjAxNTAzNDdaMBQx
EjAQBgNVBAMMCWxvY2FsaG9zdDCCASIwDQYJKoZIhvcNAQEBBQADggEPADCCAQoC
ggEBAKfa9xN63c12+tG69cj8oOY10ksB0IAoDjUhNXGU/IEDJKsS0yVHag9OBBO4
LF0m1fiUkdvIpveLaLVvyOSxQ9C3aRkGyz8YoSxe6wHOnZx3bB62C/Juz+FReWnh
0QX0op6fbChIP99mEYyL6vIjUnH1dMHsrS2nOpFyIRwtuLyJqJGOaq2aNleVsS0t
dCSb8MszbZ+ARvC/GklER9kZdTvdTTeJprzl2UfkeCFgla48vc0yiuM5eLAy+h6M
P8mUC+UJwX/zoHhDBjyjlUNApy6de4QcHWapIQVFlfGO8oOWZs3e+3nGwLLpT7a1
7ulTqHu4i7DZ0osWgdqt9bv08qUCAwEAAaNQME4wHQYDVR0OBBYEFDdafw0OVsi5
xSgntDwILWhFvcABMB8GA1UdIwQYMBaAFDdafw0OVsi5xSgntDwILWhFvcABMAwG
A1UdEwQFMAMBAf8wDQYJKoZIhvcNAQELBQADggEBAARud5FsEtdC8E1mCphgtzsc
eIvNLEwNN3xqvFQlm/JwjlzZBnp0zdsKhMh7FME+W6fiIExjsd18Uk8MTb8XRyEQ
cKLbc7XFD3YDux3NELexp1LWMIpBdWXORiy0K625Y/qs1K26BYmYFz1eWXmEj4vY
FnQ8cURQYeVOTM2pFCG8GjCVPk4IdB8aiElEbNiI3jaOH777Vk5VymLxi9tqfCu/
xDJmkxIcC3C3PPIBn8mEPpqoyxgI8gVWP85Zdyyb0ZoEYFUcvv5QknR1Om/julGM
HAW8+C7+TzU+tVxEUze6b+3UFVhTm6YeDMR9Ifbaix2EruVz9wZt9xOOXLf3W5c=
-----END CERTIFICATE-----
